target datalayout = "e-m:e-p270:32:32-p271:32:32-p272:64:64-i64:64-i128:128-f80:128-n8:16:32:64-S128"
target triple = "x86_64-pc-linux-gnu"

%struct.darktable_t = type { %struct.dt_codepath_t, i32, i32, ptr, ptr, ptr, ptr, ptr, ptr, ptr, ptr, ptr, ptr, ptr, ptr, ptr, ptr, ptr, ptr, ptr, ptr, ptr, ptr, ptr, ptr, ptr, ptr, ptr, ptr, ptr, [64 x %struct.dt_pthread_mutex_t], %struct.dt_pthread_mutex_t, %struct.dt_pthread_mutex_t, %struct.dt_pthread_mutex_t, %struct.dt_pthread_mutex_t, %struct.dt_pthread_mutex_t, ptr, ptr, ptr, ptr, ptr, ptr, ptr, ptr, ptr, ptr, ptr, ptr, ptr, %struct.dt_lua_state_t, ptr, double, ptr, i32, [47 x i32], i32, i32, ptr, ptr, %struct.dt_sys_resources_t, %struct.dt_backthumb_t, %struct.dt_gimp_t }
%struct.dt_codepath_t = type { i8, [3 x i8] }
%struct.dt_pthread_mutex_t = type { %union.pthread_mutex_t }
%union.pthread_mutex_t = type { %struct.__pthread_mutex_s }
%struct.__pthread_mutex_s = type { i32, i32, i32, i32, i32, i16, i16, %struct.__pthread_internal_list }
%struct.__pthread_internal_list = type { ptr, ptr }
%struct.dt_lua_state_t = type { i32 }
%struct.dt_sys_resources_t = type { i64, i64, ptr, ptr, i32 }
%struct.dt_backthumb_t = type { double, double, i32, i32, i32, i32 }
%struct.dt_gimp_t = type { i32, ptr, ptr, i32, i32 }
%struct.dt_image_t = type { i32, i32, float, float, float, float, float, float, float, [64 x i8], [64 x i8], [128 x i8], [64 x i8], [64 x i8], [64 x i8], [64 x i8], i64, i32, %union.dt_image_correction_data_t, [64 x i8], [64 x i8], [64 x i8], [128 x i8], i32, [256 x i8], i32, i32, i32, i32, i32, i32, i32, i32, i32, i32, float, i32, i32, i32, i32, i32, i32, i64, i64, i64, i64, i32, [12 x i8], %struct.dt_iop_buffer_dsc_t, [9 x float], ptr, i32, i32, %struct.dt_image_raw_parameters_t, %struct.dt_image_geoloc_t, %struct._color_harmony_t, i16, [4 x i16], i32, i32, float, float, [4 x float], [4 x [3 x float]], [4 x float], ptr, ptr, i32, i32, [8 x i8] }
%union.dt_image_correction_data_t = type { %struct.anon.0 }
%struct.anon.0 = type { i32, float, [11 x float], [11 x float], [11 x float], [11 x float], [11 x float] }
%struct.dt_iop_buffer_dsc_t = type { i32, i32, i32, [6 x [6 x i8]], %struct.anon.3, [12 x i8], %struct.anon.4, [4 x float], i32, [12 x i8] }
%struct.anon.3 = type { i16, i16 }
%struct.anon.4 = type { i32, [12 x i8], [4 x float] }
%struct.dt_image_raw_parameters_t = type { i32 }
%struct.dt_image_geoloc_t = type { double, double, double }
%struct._color_harmony_t = type { i32, i32, i32 }

@darktable = external global %struct.darktable_t, align 8
@.str.2 = private unnamed_addr constant [9 x i8] c"%a %x %X\00", align 1
@.str.6 = private unnamed_addr constant [9 x i8] c"%s%s%03d\00", align 1
@.str.7 = private unnamed_addr constant [2 x i8] c".\00", align 1

; Function Attrs: nounwind uwtable
define internal ptr @_datetime_append_msec(ptr noundef %0, ptr noundef %1) #0 {
  %3 = alloca ptr, align 8
  %4 = alloca ptr, align 8
  store ptr %0, ptr %3, align 8, !tbaa !60
  store ptr %1, ptr %4, align 8, !tbaa !51
  %5 = load ptr, ptr %3, align 8, !tbaa !60
  %6 = load ptr, ptr %4, align 8, !tbaa !51
  %7 = call i32 @g_date_time_get_microsecond(ptr noundef %6)
  %8 = sitofp i32 %7 to double
  %9 = fmul reassoc nsz arcp contract afn double %8, 1.000000e-03
  %10 = fptosi double %9 to i32
  %11 = call noalias ptr (ptr, ...) @g_strdup_printf(ptr noundef @.str.6, ptr noundef %5, ptr noundef @.str.7, i32 noundef %10)
  ret ptr %11
}

; Function Attrs: nounwind uwtable
define i32 @dt_datetime_gdatetime_to_local(ptr noundef %0, i64 noundef %1, ptr noundef %2, i32 noundef %3, i32 noundef %4) #0 {
  %6 = alloca i32, align 4
  %7 = alloca ptr, align 8
  %8 = alloca i64, align 8
  %9 = alloca ptr, align 8
  %10 = alloca i32, align 4
  %11 = alloca i32, align 4
  %12 = alloca ptr, align 8
  %13 = alloca ptr, align 8
  %14 = alloca ptr, align 8
  %15 = alloca i32, align 4
  store ptr %0, ptr %7, align 8, !tbaa !60
  store i64 %1, ptr %8, align 8, !tbaa !67
  store ptr %2, ptr %9, align 8, !tbaa !51
  store i32 %3, ptr %10, align 4, !tbaa !62
  store i32 %4, ptr %11, align 4, !tbaa !62
  %16 = load ptr, ptr %7, align 8, !tbaa !60
  %17 = icmp ne ptr %16, null
  br i1 %17, label %18, label %24

18:                                               ; preds = %5
  %19 = load i64, ptr %8, align 8, !tbaa !67
  %20 = icmp ne i64 %19, 0
  br i1 %20, label %21, label %24

21:                                               ; preds = %18
  %22 = load ptr, ptr %9, align 8, !tbaa !51
  %23 = icmp ne ptr %22, null
  br i1 %23, label %25, label %24

24:                                               ; preds = %21, %18, %5
  store i32 0, ptr %6, align 4
  br label %65

25:                                               ; preds = %21
  %26 = load ptr, ptr %7, align 8, !tbaa !60
  %27 = getelementptr inbounds i8, ptr %26, i64 0
  store i8 0, ptr %27, align 1, !tbaa !61
  %28 = load ptr, ptr %9, align 8, !tbaa !51
  %29 = icmp ne ptr %28, null
  br i1 %29, label %30, label %64

30:                                               ; preds = %25
  call void @llvm.lifetime.start.p0(i64 8, ptr %12) #7
  %31 = load i32, ptr %11, align 4, !tbaa !62
  %32 = icmp ne i32 %31, 0
  br i1 %32, label %33, label %39

33:                                               ; preds = %30
  call void @llvm.lifetime.start.p0(i64 8, ptr %13) #7
  %34 = load ptr, ptr %9, align 8, !tbaa !51
  %35 = call ptr @g_date_time_to_local(ptr noundef %34)
  store ptr %35, ptr %13, align 8, !tbaa !51
  %36 = load ptr, ptr %13, align 8, !tbaa !51
  %37 = call noalias ptr @g_date_time_format(ptr noundef %36, ptr noundef @.str.2)
  store ptr %37, ptr %12, align 8, !tbaa !60
  %38 = load ptr, ptr %13, align 8, !tbaa !51
  call void @g_date_time_unref(ptr noundef %38)
  call void @llvm.lifetime.end.p0(i64 8, ptr %13) #7
  br label %42

39:                                               ; preds = %30
  %40 = load ptr, ptr %9, align 8, !tbaa !51
  %41 = call noalias ptr @g_date_time_format(ptr noundef %40, ptr noundef @.str.2)
  store ptr %41, ptr %12, align 8, !tbaa !60
  br label %42

42:                                               ; preds = %39, %33
  %43 = load ptr, ptr %12, align 8, !tbaa !60
  %44 = icmp ne ptr %43, null
  br i1 %44, label %45, label %60

45:                                               ; preds = %42
  %46 = load i32, ptr %10, align 4, !tbaa !62
  %47 = icmp ne i32 %46, 0
  br i1 %47, label %48, label %54

48:                                               ; preds = %45
  call void @llvm.lifetime.start.p0(i64 8, ptr %14) #7
  %49 = load ptr, ptr %12, align 8, !tbaa !60
  %50 = load ptr, ptr %9, align 8, !tbaa !51
  %51 = call ptr @_datetime_append_msec(ptr noundef %49, ptr noundef %50)
  store ptr %51, ptr %14, align 8, !tbaa !60
  %52 = load ptr, ptr %12, align 8, !tbaa !60
  call void @g_free(ptr noundef %52)
  %53 = load ptr, ptr %14, align 8, !tbaa !60
  store ptr %53, ptr %12, align 8, !tbaa !60
  call void @llvm.lifetime.end.p0(i64 8, ptr %14) #7
  br label %54

54:                                               ; preds = %48, %45
  %55 = load ptr, ptr %7, align 8, !tbaa !60
  %56 = load ptr, ptr %12, align 8, !tbaa !60
  %57 = load i64, ptr %8, align 8, !tbaa !67
  %58 = call i64 @g_strlcpy(ptr noundef %55, ptr noundef %56, i64 noundef %57)
  %59 = load ptr, ptr %12, align 8, !tbaa !60
  call void @g_free(ptr noundef %59)
  store i32 1, ptr %6, align 4
  store i32 1, ptr %15, align 4
  br label %61

60:                                               ; preds = %42
  store i32 0, ptr %15, align 4
  br label %61

61:                                               ; preds = %60, %54
  call void @llvm.lifetime.end.p0(i64 8, ptr %12) #7
  %62 = load i32, ptr %15, align 4
  switch i32 %62, label %67 [
    i32 0, label %63
    i32 1, label %65
  ]

63:                                               ; preds = %61
  br label %64

64:                                               ; preds = %63, %25
  store i32 0, ptr %6, align 4
  br label %65

65:                                               ; preds = %64, %61, %24
  %66 = load i32, ptr %6, align 4
  ret i32 %66

67:                                               ; preds = %61
  unreachable
}

; Function Attrs: nounwind uwtable
define i32 @dt_datetime_gtimespan_to_local(ptr noundef %0, i64 noundef %1, i64 noundef %2, i32 noundef %3, i32 noundef %4) #0 {
  %6 = alloca i32, align 4
  %7 = alloca ptr, align 8
  %8 = alloca i64, align 8
  %9 = alloca i64, align 8
  %10 = alloca i32, align 4
  %11 = alloca i32, align 4
  %12 = alloca i32, align 4
  %13 = alloca i32, align 4
  %14 = alloca ptr, align 8
  store ptr %0, ptr %7, align 8, !tbaa !60
  store i64 %1, ptr %8, align 8, !tbaa !67
  store i64 %2, ptr %9, align 8, !tbaa !67
  store i32 %3, ptr %10, align 4, !tbaa !62
  store i32 %4, ptr %11, align 4, !tbaa !62
  call void @llvm.lifetime.start.p0(i64 4, ptr %12) #7
  store i32 0, ptr %12, align 4, !tbaa !62
  %15 = load ptr, ptr %7, align 8, !tbaa !60
  %16 = icmp ne ptr %15, null
  br i1 %16, label %17, label %20

17:                                               ; preds = %5
  %18 = load i64, ptr %8, align 8, !tbaa !67
  %19 = icmp ne i64 %18, 0
  br i1 %19, label %21, label %20

20:                                               ; preds = %17, %5
  store i32 0, ptr %6, align 4
  store i32 1, ptr %13, align 4
  br label %39

21:                                               ; preds = %17
  %22 = load ptr, ptr %7, align 8, !tbaa !60
  %23 = getelementptr inbounds i8, ptr %22, i64 0
  store i8 0, ptr %23, align 1, !tbaa !61
  call void @llvm.lifetime.start.p0(i64 8, ptr %14) #7
  %24 = load ptr, ptr getelementptr inbounds nuw (%struct.darktable_t, ptr @darktable, i32 0, i32 58), align 8, !tbaa !48
  %25 = load i64, ptr %9, align 8, !tbaa !67
  %26 = call ptr @g_date_time_add(ptr noundef %24, i64 noundef %25)
  store ptr %26, ptr %14, align 8, !tbaa !51
  %27 = load ptr, ptr %14, align 8, !tbaa !51
  %28 = icmp ne ptr %27, null
  br i1 %28, label %29, label %37

29:                                               ; preds = %21
  %30 = load ptr, ptr %7, align 8, !tbaa !60
  %31 = load i64, ptr %8, align 8, !tbaa !67
  %32 = load ptr, ptr %14, align 8, !tbaa !51
  %33 = load i32, ptr %10, align 4, !tbaa !62
  %34 = load i32, ptr %11, align 4, !tbaa !62
  %35 = call i32 @dt_datetime_gdatetime_to_local(ptr noundef %30, i64 noundef %31, ptr noundef %32, i32 noundef %33, i32 noundef %34)
  store i32 %35, ptr %12, align 4, !tbaa !62
  %36 = load ptr, ptr %14, align 8, !tbaa !51
  call void @g_date_time_unref(ptr noundef %36)
  br label %37

37:                                               ; preds = %29, %21
  %38 = load i32, ptr %12, align 4, !tbaa !62
  store i32 %38, ptr %6, align 4
  store i32 1, ptr %13, align 4
  call void @llvm.lifetime.end.p0(i64 8, ptr %14) #7
  br label %39

39:                                               ; preds = %37, %20
  call void @llvm.lifetime.end.p0(i64 4, ptr %12) #7
  %40 = load i32, ptr %6, align 4
  ret i32 %40
}

; Function Attrs: nounwind uwtable
define i32 @dt_datetime_img_to_local(ptr noundef %0, i64 noundef %1, ptr noundef %2, i32 noundef %3) #0 {
  %5 = alloca ptr, align 8
  %6 = alloca i64, align 8
  %7 = alloca ptr, align 8
  %8 = alloca i32, align 4
  store ptr %0, ptr %5, align 8, !tbaa !60
  store i64 %1, ptr %6, align 8, !tbaa !67
  store ptr %2, ptr %7, align 8, !tbaa !68
  store i32 %3, ptr %8, align 4, !tbaa !62
  %9 = load ptr, ptr %5, align 8, !tbaa !60
  %10 = load i64, ptr %6, align 8, !tbaa !67
  %11 = load ptr, ptr %7, align 8, !tbaa !68
  %12 = getelementptr inbounds nuw %struct.dt_image_t, ptr %11, i32 0, i32 16
  %13 = load i64, ptr %12, align 8, !tbaa !70
  %14 = load i32, ptr %8, align 4, !tbaa !62
  %15 = call i32 @dt_datetime_gtimespan_to_local(ptr noundef %9, i64 noundef %10, i64 noundef %13, i32 noundef %14, i32 noundef 0)
  ret i32 %15
}