; Function Attrs: nounwind uwtable
define range(i32 0, 2) i32 @dt_datetime_img_to_local(ptr noundef %0, i64 noundef %1, ptr noundef readonly captures(none) %2, i32 noundef %3) local_unnamed_addr #0 {
  %5 = icmp ne ptr %0, null
  %6 = icmp ne i64 %1, 0
  %or.cond.i = and i1 %5, %6
  br i1 %or.cond.i, label %7, label %dt_datetime_gtimespan_to_local.exit

7:                                                ; preds = %4
  %8 = getelementptr inbounds nuw i8, ptr %2, i64 552
  %9 = load i64, ptr %8, align 8, !tbaa !60
  store i8 0, ptr %0, align 1, !tbaa !57
  %10 = load ptr, ptr getelementptr inbounds nuw (i8, ptr @darktable, i64 3336), align 8, !tbaa !48
  %11 = tail call ptr @g_date_time_add(ptr noundef %10, i64 noundef %9) #7
  %.not.i = icmp eq ptr %11, null
  br i1 %.not.i, label %dt_datetime_gtimespan_to_local.exit, label %12

12:                                               ; preds = %7
  store i8 0, ptr %0, align 1, !tbaa !57
  %13 = tail call noalias ptr @g_date_time_format(ptr noundef nonnull %11, ptr noundef nonnull @.str.2) #7
  %.not30.not.i = icmp ne ptr %13, null
  br i1 %.not30.not.i, label %14, label %dt_datetime_gdatetime_to_local.exit

14:                                               ; preds = %12
  %.not31.i = icmp eq i32 %3, 0
  br i1 %.not31.i, label %21, label %15

15:                                               ; preds = %14
  %16 = tail call i32 @g_date_time_get_microsecond(ptr noundef nonnull %11) #7
  %17 = sitofp i32 %16 to double
  %18 = fmul reassoc nsz arcp contract afn double %17, 1.000000e-03
  %19 = fptosi double %18 to i32
  %20 = tail call noalias ptr (ptr, ...) @g_strdup_printf(ptr noundef nonnull @.str.6, ptr noundef nonnull %13, ptr noundef nonnull @.str.7, i32 noundef %19) #7
  tail call void @g_free(ptr noundef nonnull %13) #7
  br label %21

21:                                               ; preds = %15, %14
  %.126.i = phi ptr [ %20, %15 ], [ %13, %14 ]
  %22 = tail call i64 @g_strlcpy(ptr noundef nonnull %0, ptr noundef %.126.i, i64 noundef %1) #7
  tail call void @g_free(ptr noundef %.126.i) #7
  br label %dt_datetime_gdatetime_to_local.exit

dt_datetime_gdatetime_to_local.exit:              ; preds = %12, %21
  %spec.select.i = zext i1 %.not30.not.i to i32
  tail call void @g_date_time_unref(ptr noundef nonnull %11) #7
  br label %dt_datetime_gtimespan_to_local.exit

dt_datetime_gtimespan_to_local.exit:              ; preds = %4, %7, %dt_datetime_gdatetime_to_local.exit
  %.0.i = phi i32 [ 0, %4 ], [ %spec.select.i, %dt_datetime_gdatetime_to_local.exit ], [ 0, %7 ]
  ret i32 %.0.i
}